; Function Attrs: mustprogress nounwind uwtable
define dso_local void @_ZN4node4i18n9Converter15set_subst_charsEPKc(ptr nocapture noundef nonnull readonly align 8 dereferenceable(8) %this, ptr noundef %sub) local_unnamed_addr #3 align 2 {
entry:
  %status = alloca i32, align 4
  %0 = load ptr, ptr %this, align 8
  %cmp.i.not = icmp eq ptr %0, null
  br i1 %cmp.i.not, label %do.body4, label %do.end5

do.body4:                                         ; preds = %entry
  tail call void @_ZN4node6AssertERKNS_13AssertionInfoE(ptr noundef nonnull align 8 dereferenceable(24) @_ZZN4node4i18n9Converter15set_subst_charsEPKcE4args) #21
  tail call void @abort() #22
  unreachable

do.end5:                                          ; preds = %entry
  store i32 0, ptr %status, align 4
  %cmp.not = icmp eq ptr %sub, null
  br i1 %cmp.not, label %if.end21, label %if.then6

if.then6:                                         ; preds = %do.end5
  %call9 = tail call i64 @strlen(ptr noundef nonnull dereferenceable(1) %sub) #23
  %conv = trunc i64 %call9 to i8
  call void @ucnv_setSubstChars_74(ptr noundef nonnull %0, ptr noundef nonnull %sub, i8 noundef signext %conv, ptr noundef nonnull %status) #21
  %1 = load i32, ptr %status, align 4
  %cmp.i3 = icmp sgt i32 %1, 0
  br i1 %cmp.i3, label %do.body17, label %if.end21

do.body17:                                        ; preds = %if.then6
  call void @_ZN4node6AssertERKNS_13AssertionInfoE(ptr noundef nonnull align 8 dereferenceable(24) @_ZZN4node4i18n9Converter15set_subst_charsEPKcE4args_0) #21
  call void @abort() #22
  unreachable

if.end21:                                         ; preds = %if.then6, %do.end5
  ret void
}